target datalayout = "e-m:e-p270:32:32-p271:32:32-p272:64:64-i64:64-i128:128-f80:128-n8:16:32:64-S128"
target triple = "x86_64-pc-linux-gnu"

%struct.LWLock = type { i16, %struct.pg_atomic_uint32, %struct.proclist_head }
%struct.pg_atomic_uint32 = type { i32 }
%struct.proclist_head = type { i32, i32 }
%struct.PgStatShared_Common = type { i32, %struct.LWLock }
%struct.PgStat_EntryRef = type { ptr, ptr, i32, ptr, %struct.dlist_node }
%struct.dlist_node = type { ptr, ptr }

; Function Attrs: nounwind uwtable
define dso_local zeroext i1 @pgstat_lock_entry(ptr noundef %0, i1 noundef zeroext %1) #0 {
  %3 = alloca i1, align 1
  %4 = alloca ptr, align 8
  %5 = alloca i8, align 1
  %6 = alloca ptr, align 8
  %7 = alloca i32, align 4
  store ptr %0, ptr %4, align 8
  %8 = zext i1 %1 to i8
  store i8 %8, ptr %5, align 1
  call void @llvm.lifetime.start.p0(i64 8, ptr %6) #10
  %9 = load ptr, ptr %4, align 8
  %10 = getelementptr inbounds nuw %struct.PgStat_EntryRef, ptr %9, i32 0, i32 1
  %11 = load ptr, ptr %10, align 8
  %12 = getelementptr inbounds nuw %struct.PgStatShared_Common, ptr %11, i32 0, i32 1
  store ptr %12, ptr %6, align 8
  %13 = load i8, ptr %5, align 1, !range !6, !noundef !7
  %14 = trunc i8 %13 to i1
  br i1 %14, label %15, label %18

15:                                               ; preds = %2
  %16 = load ptr, ptr %6, align 8
  %17 = call zeroext i1 @LWLockConditionalAcquire(ptr noundef %16, i32 noundef 0)
  store i1 %17, ptr %3, align 1
  store i32 1, ptr %7, align 4
  br label %21

18:                                               ; preds = %2
  %19 = load ptr, ptr %6, align 8
  %20 = call zeroext i1 @LWLockAcquire(ptr noundef %19, i32 noundef 0)
  store i1 true, ptr %3, align 1
  store i32 1, ptr %7, align 4
  br label %21

21:                                               ; preds = %18, %15
  call void @llvm.lifetime.end.p0(i64 8, ptr %6) #10
  %22 = load i1, ptr %3, align 1
  ret i1 %22
}

; Function Attrs: nounwind uwtable
define dso_local ptr @pgstat_get_entry_ref_locked(i32 noundef %0, i32 noundef %1, i64 noundef %2, i1 noundef zeroext %3) #0 {
  %5 = alloca ptr, align 8
  %6 = alloca i32, align 4
  %7 = alloca i32, align 4
  %8 = alloca i64, align 8
  %9 = alloca i8, align 1
  %10 = alloca ptr, align 8
  %11 = alloca i32, align 4
  store i32 %0, ptr %6, align 4
  store i32 %1, ptr %7, align 4
  store i64 %2, ptr %8, align 8
  %12 = zext i1 %3 to i8
  store i8 %12, ptr %9, align 1
  call void @llvm.lifetime.start.p0(i64 8, ptr %10) #10
  %13 = load i32, ptr %6, align 4
  %14 = load i32, ptr %7, align 4
  %15 = load i64, ptr %8, align 8
  %16 = call ptr @pgstat_get_entry_ref(i32 noundef %13, i32 noundef %14, i64 noundef %15, i1 noundef zeroext true, ptr noundef null)
  store ptr %16, ptr %10, align 8
  %17 = load ptr, ptr %10, align 8
  %18 = load i8, ptr %9, align 1, !range !6, !noundef !7
  %19 = trunc i8 %18 to i1
  %20 = call zeroext i1 @pgstat_lock_entry(ptr noundef %17, i1 noundef zeroext %19)
  br i1 %20, label %22, label %21

21:                                               ; preds = %4
  store ptr null, ptr %5, align 8
  store i32 1, ptr %11, align 4
  br label %24

22:                                               ; preds = %4
  %23 = load ptr, ptr %10, align 8
  store ptr %23, ptr %5, align 8
  store i32 1, ptr %11, align 4
  br label %24

24:                                               ; preds = %22, %21
  call void @llvm.lifetime.end.p0(i64 8, ptr %10) #10
  %25 = load ptr, ptr %5, align 8
  ret ptr %25
}