; Function Attrs: nounwind uwtable
define dso_local ptr @pgstat_get_entry_ref_locked(i32 noundef %0, i32 noundef %1, i64 noundef %2, i1 noundef zeroext %3) local_unnamed_addr #0 {
  %5 = tail call ptr @pgstat_get_entry_ref(i32 noundef %0, i32 noundef %1, i64 noundef %2, i1 noundef zeroext true, ptr noundef null)
  %6 = getelementptr inbounds nuw i8, ptr %5, i64 8
  %7 = load ptr, ptr %6, align 8
  %8 = getelementptr inbounds nuw i8, ptr %7, i64 4
  br i1 %3, label %pgstat_lock_entry.exit, label %pgstat_lock_entry.exit.thread

pgstat_lock_entry.exit.thread:                    ; preds = %4
  %9 = tail call zeroext i1 @LWLockAcquire(ptr noundef nonnull %8, i32 noundef 0) #15
  br label %11

pgstat_lock_entry.exit:                           ; preds = %4
  %10 = tail call zeroext i1 @LWLockConditionalAcquire(ptr noundef nonnull %8, i32 noundef 0) #15
  %cond.fr = freeze i1 %10
  br i1 %cond.fr, label %11, label %12

11:                                               ; preds = %pgstat_lock_entry.exit.thread, %pgstat_lock_entry.exit
  br label %12

12:                                               ; preds = %pgstat_lock_entry.exit, %11
  %13 = phi ptr [ %5, %11 ], [ null, %pgstat_lock_entry.exit ]
  ret ptr %13
}